; ModuleID = '16/913.c'
source_filename = "16/913.c"
target datalayout = "e-m:e-p270:32:32-p271:32:32-p272:64:64-i64:64-f80:128-n8:16:32:64-S128"
target triple = "x86_64-pc-linux-gnu"

@.str = private unnamed_addr constant [3 x i8] c"%d\00", align 1
@.str.1 = private unnamed_addr constant [4 x i8] c"%d\0A\00", align 1
@.str.2 = private unnamed_addr constant [6 x i8] c"%02d\0A\00", align 1
@.str.3 = private unnamed_addr constant [6 x i8] c"%03d\0A\00", align 1
@.str.4 = private unnamed_addr constant [6 x i8] c"%04d\0A\00", align 1
@.str.5 = private unnamed_addr constant [2 x i8] c"\0A\00", align 1

; Function Attrs: noinline nounwind uwtable
define dso_local i32 @main() #0 {
  %1 = alloca i32, align 4
  %2 = alloca i32, align 4
  %3 = alloca i32, align 4
  %4 = alloca i32, align 4
  %5 = alloca i32, align 4
  %6 = alloca i32, align 4
  %7 = alloca i32, align 4
  store i32 0, i32* %1, align 4
  %8 = call i32 (i8*, ...) @__isoc99_scanf(i8* getelementptr inbounds ([3 x i8], [3 x i8]* @.str, i64 0, i64 0), i32* %2)
  %9 = load i32, i32* %2, align 4
  %10 = icmp sge i32 %9, 0
  br i1 %10, label %11, label %17

11:                                               ; preds = %0
  %12 = load i32, i32* %2, align 4
  %13 = icmp slt i32 %12, 10
  br i1 %13, label %14, label %17

14:                                               ; preds = %11
  %15 = load i32, i32* %2, align 4
  %16 = call i32 (i8*, ...) @printf(i8* getelementptr inbounds ([4 x i8], [4 x i8]* @.str.1, i64 0, i64 0), i32 %15)
  br label %105

17:                                               ; preds = %11, %0
  %18 = load i32, i32* %2, align 4
  %19 = icmp sge i32 %18, 10
  br i1 %19, label %20, label %36

20:                                               ; preds = %17
  %21 = load i32, i32* %2, align 4
  %22 = icmp slt i32 %21, 100
  br i1 %22, label %23, label %36

23:                                               ; preds = %20
  %24 = load i32, i32* %2, align 4
  %25 = srem i32 %24, 10
  store i32 %25, i32* %3, align 4
  %26 = load i32, i32* %2, align 4
  %27 = load i32, i32* %3, align 4
  %28 = sub nsw i32 %26, %27
  %29 = sdiv i32 %28, 10
  store i32 %29, i32* %4, align 4
  %30 = load i32, i32* %3, align 4
  %31 = mul nsw i32 %30, 10
  %32 = load i32, i32* %4, align 4
  %33 = add nsw i32 %31, %32
  store i32 %33, i32* %5, align 4
  %34 = load i32, i32* %5, align 4
  %35 = call i32 (i8*, ...) @printf(i8* getelementptr inbounds ([6 x i8], [6 x i8]* @.str.2, i64 0, i64 0), i32 %34)
  br label %104

36:                                               ; preds = %20, %17
  %37 = load i32, i32* %2, align 4
  %38 = icmp sge i32 %37, 100
  br i1 %38, label %39, label %63

39:                                               ; preds = %36
  %40 = load i32, i32* %2, align 4
  %41 = icmp slt i32 %40, 1000
  br i1 %41, label %42, label %63

42:                                               ; preds = %39
  %43 = load i32, i32* %2, align 4
  %44 = srem i32 %43, 10
  store i32 %44, i32* %3, align 4
  %45 = load i32, i32* %2, align 4
  %46 = load i32, i32* %3, align 4
  %47 = sub nsw i32 %45, %46
  %48 = srem i32 %47, 100
  store i32 %48, i32* %4, align 4
  %49 = load i32, i32* %2, align 4
  %50 = load i32, i32* %3, align 4
  %51 = sub nsw i32 %49, %50
  %52 = load i32, i32* %4, align 4
  %53 = sub nsw i32 %51, %52
  %54 = sdiv i32 %53, 100
  store i32 %54, i32* %5, align 4
  %55 = load i32, i32* %3, align 4
  %56 = mul nsw i32 %55, 100
  %57 = load i32, i32* %4, align 4
  %58 = add nsw i32 %56, %57
  %59 = load i32, i32* %5, align 4
  %60 = add nsw i32 %58, %59
  store i32 %60, i32* %6, align 4
  %61 = load i32, i32* %6, align 4
  %62 = call i32 (i8*, ...) @printf(i8* getelementptr inbounds ([6 x i8], [6 x i8]* @.str.3, i64 0, i64 0), i32 %61)
  br label %103

63:                                               ; preds = %39, %36
  %64 = load i32, i32* %2, align 4
  %65 = icmp sge i32 %64, 1000
  br i1 %65, label %66, label %102

66:                                               ; preds = %63
  %67 = load i32, i32* %2, align 4
  %68 = icmp slt i32 %67, 10000
  br i1 %68, label %69, label %102

69:                                               ; preds = %66
  %70 = load i32, i32* %2, align 4
  %71 = srem i32 %70, 10
  store i32 %71, i32* %3, align 4
  %72 = load i32, i32* %2, align 4
  %73 = load i32, i32* %3, align 4
  %74 = sub nsw i32 %72, %73
  %75 = srem i32 %74, 100
  store i32 %75, i32* %4, align 4
  %76 = load i32, i32* %2, align 4
  %77 = load i32, i32* %3, align 4
  %78 = sub nsw i32 %76, %77
  %79 = load i32, i32* %4, align 4
  %80 = sub nsw i32 %78, %79
  %81 = srem i32 %80, 1000
  store i32 %81, i32* %5, align 4
  %82 = load i32, i32* %2, align 4
  %83 = load i32, i32* %3, align 4
  %84 = sub nsw i32 %82, %83
  %85 = load i32, i32* %4, align 4
  %86 = sub nsw i32 %84, %85
  %87 = load i32, i32* %5, align 4
  %88 = sub nsw i32 %86, %87
  %89 = sdiv i32 %88, 1000
  store i32 %89, i32* %6, align 4
  %90 = load i32, i32* %3, align 4
  %91 = mul nsw i32 %90, 1000
  %92 = load i32, i32* %4, align 4
  %93 = mul nsw i32 %92, 10
  %94 = add nsw i32 %91, %93
  %95 = load i32, i32* %5, align 4
  %96 = sdiv i32 %95, 10
  %97 = add nsw i32 %94, %96
  %98 = load i32, i32* %6, align 4
  %99 = add nsw i32 %97, %98
  store i32 %99, i32* %7, align 4
  %100 = load i32, i32* %7, align 4
  %101 = call i32 (i8*, ...) @printf(i8* getelementptr inbounds ([6 x i8], [6 x i8]* @.str.4, i64 0, i64 0), i32 %100)
  br label %102

102:                                              ; preds = %69, %66, %63
  br label %103

103:                                              ; preds = %102, %42
  br label %104

104:                                              ; preds = %103, %23
  br label %105

105:                                              ; preds = %104, %14
  %106 = call i32 (i8*, ...) @printf(i8* getelementptr inbounds ([2 x i8], [2 x i8]* @.str.5, i64 0, i64 0))
  ret i32 0
}

declare dso_local i32 @__isoc99_scanf(i8*, ...) #1

declare dso_local i32 @printf(i8*, ...) #1


!llvm.module.flags = !{!0}
!llvm.ident = !{!1}

!0 = !{i32 1, !"wchar_size", i32 4}
!1 = !{!"clang version 10.0.0-4ubuntu1 "}
